; ModuleID = '10/1572.c'
source_filename = "10/1572.c"
target datalayout = "e-m:e-p270:32:32-p271:32:32-p272:64:64-i64:64-f80:128-n8:16:32:64-S128"
target triple = "x86_64-pc-linux-gnu"

@.str = private unnamed_addr constant [3 x i8] c"%d\00", align 1

; Function Attrs: noinline nounwind uwtable
define dso_local i32 @main() #0 {
  %1 = alloca i32, align 4
  %2 = alloca [100 x i32], align 16
  %3 = alloca [100 x i32], align 16
  %4 = alloca i32, align 4
  %5 = alloca i32, align 4
  %6 = alloca i32, align 4
  %7 = alloca i32, align 4
  store i32 0, i32* %1, align 4
  %8 = bitcast [100 x i32]* %2 to i8*
  call void @llvm.memset.p0i8.i64(i8* align 16 %8, i8 0, i64 400, i1 false)
  store i32 0, i32* %7, align 4
  %9 = call i32 (i8*, ...) @__isoc99_scanf(i8* getelementptr inbounds ([3 x i8], [3 x i8]* @.str, i64 0, i64 0), i32* %4)
  store i32 0, i32* %5, align 4
  br label %10

10:                                               ; preds = %19, %0
  %11 = load i32, i32* %5, align 4
  %12 = load i32, i32* %4, align 4
  %13 = icmp slt i32 %11, %12
  br i1 %13, label %14, label %22

14:                                               ; preds = %10
  %15 = load i32, i32* %5, align 4
  %16 = sext i32 %15 to i64
  %17 = getelementptr inbounds [100 x i32], [100 x i32]* %3, i64 0, i64 %16
  %18 = call i32 (i8*, ...) @__isoc99_scanf(i8* getelementptr inbounds ([3 x i8], [3 x i8]* @.str, i64 0, i64 0), i32* %17)
  br label %19

19:                                               ; preds = %14
  %20 = load i32, i32* %5, align 4
  %21 = add nsw i32 %20, 1
  store i32 %21, i32* %5, align 4
  br label %10

22:                                               ; preds = %10
  %23 = load i32, i32* %4, align 4
  %24 = sub nsw i32 %23, 1
  store i32 %24, i32* %5, align 4
  br label %25

25:                                               ; preds = %79, %22
  %26 = load i32, i32* %5, align 4
  %27 = icmp sge i32 %26, 0
  br i1 %27, label %28, label %82

28:                                               ; preds = %25
  %29 = load i32, i32* %5, align 4
  %30 = load i32, i32* %4, align 4
  %31 = sub nsw i32 %30, 1
  %32 = icmp eq i32 %29, %31
  br i1 %32, label %33, label %37

33:                                               ; preds = %28
  %34 = load i32, i32* %5, align 4
  %35 = sext i32 %34 to i64
  %36 = getelementptr inbounds [100 x i32], [100 x i32]* %2, i64 0, i64 %35
  store i32 1, i32* %36, align 4
  br label %78

37:                                               ; preds = %28
  %38 = load i32, i32* %5, align 4
  %39 = add nsw i32 %38, 1
  store i32 %39, i32* %6, align 4
  br label %40

40:                                               ; preds = %69, %37
  %41 = load i32, i32* %6, align 4
  %42 = load i32, i32* %4, align 4
  %43 = sub nsw i32 %42, 1
  %44 = icmp sle i32 %41, %43
  br i1 %44, label %45, label %72

45:                                               ; preds = %40
  %46 = load i32, i32* %6, align 4
  %47 = sext i32 %46 to i64
  %48 = getelementptr inbounds [100 x i32], [100 x i32]* %3, i64 0, i64 %47
  %49 = load i32, i32* %48, align 4
  %50 = load i32, i32* %5, align 4
  %51 = sext i32 %50 to i64
  %52 = getelementptr inbounds [100 x i32], [100 x i32]* %3, i64 0, i64 %51
  %53 = load i32, i32* %52, align 4
  %54 = icmp sle i32 %49, %53
  br i1 %54, label %55, label %68

55:                                               ; preds = %45
  %56 = load i32, i32* %6, align 4
  %57 = sext i32 %56 to i64
  %58 = getelementptr inbounds [100 x i32], [100 x i32]* %2, i64 0, i64 %57
  %59 = load i32, i32* %58, align 4
  %60 = load i32, i32* %7, align 4
  %61 = icmp sgt i32 %59, %60
  br i1 %61, label %62, label %67

62:                                               ; preds = %55
  %63 = load i32, i32* %6, align 4
  %64 = sext i32 %63 to i64
  %65 = getelementptr inbounds [100 x i32], [100 x i32]* %2, i64 0, i64 %64
  %66 = load i32, i32* %65, align 4
  store i32 %66, i32* %7, align 4
  br label %67

67:                                               ; preds = %62, %55
  br label %68

68:                                               ; preds = %67, %45
  br label %69

69:                                               ; preds = %68
  %70 = load i32, i32* %6, align 4
  %71 = add nsw i32 %70, 1
  store i32 %71, i32* %6, align 4
  br label %40

72:                                               ; preds = %40
  %73 = load i32, i32* %7, align 4
  %74 = add nsw i32 %73, 1
  store i32 %74, i32* %7, align 4
  %75 = load i32, i32* %5, align 4
  %76 = sext i32 %75 to i64
  %77 = getelementptr inbounds [100 x i32], [100 x i32]* %2, i64 0, i64 %76
  store i32 %74, i32* %77, align 4
  store i32 0, i32* %7, align 4
  br label %78

78:                                               ; preds = %72, %33
  br label %79

79:                                               ; preds = %78
  %80 = load i32, i32* %5, align 4
  %81 = add nsw i32 %80, -1
  store i32 %81, i32* %5, align 4
  br label %25

82:                                               ; preds = %25
  store i32 0, i32* %7, align 4
  store i32 0, i32* %5, align 4
  br label %83

83:                                               ; preds = %101, %82
  %84 = load i32, i32* %5, align 4
  %85 = load i32, i32* %4, align 4
  %86 = sub nsw i32 %85, 1
  %87 = icmp sle i32 %84, %86
  br i1 %87, label %88, label %104

88:                                               ; preds = %83
  %89 = load i32, i32* %5, align 4
  %90 = sext i32 %89 to i64
  %91 = getelementptr inbounds [100 x i32], [100 x i32]* %2, i64 0, i64 %90
  %92 = load i32, i32* %91, align 4
  %93 = load i32, i32* %7, align 4
  %94 = icmp sgt i32 %92, %93
  br i1 %94, label %95, label %100

95:                                               ; preds = %88
  %96 = load i32, i32* %5, align 4
  %97 = sext i32 %96 to i64
  %98 = getelementptr inbounds [100 x i32], [100 x i32]* %2, i64 0, i64 %97
  %99 = load i32, i32* %98, align 4
  store i32 %99, i32* %7, align 4
  br label %100

100:                                              ; preds = %95, %88
  br label %101

101:                                              ; preds = %100
  %102 = load i32, i32* %5, align 4
  %103 = add nsw i32 %102, 1
  store i32 %103, i32* %5, align 4
  br label %83

104:                                              ; preds = %83
  %105 = load i32, i32* %7, align 4
  %106 = call i32 (i8*, ...) @printf(i8* getelementptr inbounds ([3 x i8], [3 x i8]* @.str, i64 0, i64 0), i32 %105)
  ret i32 0
}

; Function Attrs: argmemonly nounwind willreturn
declare void @llvm.memset.p0i8.i64(i8* nocapture writeonly, i8, i64, i1 immarg) #1

declare dso_local i32 @__isoc99_scanf(i8*, ...) #2

declare dso_local i32 @printf(i8*, ...) #2


!llvm.module.flags = !{!0}
!llvm.ident = !{!1}

!0 = !{i32 1, !"wchar_size", i32 4}
!1 = !{!"clang version 10.0.0-4ubuntu1 "}
